(dp0
Vtagprogress
p1
(dp2
sVtaghistory
p3
c__builtin__
set
p4
((lp5
(S'/pub/audio/music/Sent By Ravens/Mean What You Say'
p6
tp7
a(S'/pub/audio/music/Jimmy Eat World/2010 - Invented (Deluxe Version)'
p8
tp9
a(S'/pub/audio/music/Simple Plan/[2004] Still Not Getting Any'
p10
tp11
a(S'/pub/audio/music/Anberlin/Dark Is The Way, Light Is The Place'
p12
tp13
a(S'/pub/audio/music/Daughtry/Leave This Town'
p14
tp15
a(S'/pub/audio/music/Nine Lashes/Escape'
p16
tp17
a(S'/pub/audio/music/12 Stones/Anthem for the underdog'
p18
tp19
a(S'/pub/audio/music/Hillsong Live/Glorious Ruins'
p20
tp21
a(S'/pub/audio/music/Red/End Of Silence'
p22
tp23
a(S'/pub/audio/music/Sum41/Half Hour Of Power'
p24
tp25
a(S'/pub/audio/music/Story of the Year/Story_Of_The_Year-The_Black_Swan-2008'
p26
tp27
a(S'/pub/audio/music/Hillsong Live/Forever Reign (Hillsong Chapel)'
p28
tp29
a(S'/pub/audio/_music_import/Hillsong Worship/Open Heaven River Wild/01 O Praise the Name (An\xc3\xa1stasis).m4a'
p30
tp31
a(S'/pub/audio/music/Sum41/All Killer No Filler'
p32
tp33
a(S'/pub/audio/music/Seven Wiser/Fallzone/Stronger'
p34
tp35
a(S'/pub/audio/music/Seven Wiser/Seven Wiser'
p36
tp37
a(S'/pub/audio/music/House of Heroes/Cold Hard Want'
p38
tp39
a(S'/pub/audio/music/FM Static/Dear Diary'
p40
tp41
a(S'/pub/audio/music/Anberlin/Vital'
p42
tp43
a(S'/pub/audio/music/Fallzone/Dance With Me'
p44
tp45
a(S'/pub/audio/music/Hoobastank/The Reason'
p46
tp47
a(S'/pub/audio/music/Simple Plan/[2002] No Pads No Helmets... Just Balls'
p48
tp49
a(S'/pub/audio/music/Hillsong United/Zion (Deluxe Edition)'
p50
tp51
a(S'/pub/audio/music/Hillsong Live/Cornerstone (Deluxe Edition) [Live]'
p52
tp53
a(S'/pub/audio/music/12 Stones/Beneath The Scars'
p54
tp55
a(S'/pub/audio/music/One Less Reason'
p56
tp57
a(S'/pub/audio/music/Evermore/Follow The Sun'
p58
tp59
a(S'/pub/audio/music/Skillet/Comatose'
p60
tp61
a(S'/pub/audio/music/Hillsong Worship/No Other Name (Deluxe Edition)'
p62
tp63
a(S'/pub/audio/music/Daughtry/Baptized'
p64
tp65
a(S'/pub/audio/music/Framing Hanley/A Promise To Burn (Bonus)'
p66
tp67
a(S'/pub/audio/music/Anberlin/Cities'
p68
tp69
a(S'/pub/audio/_music_import/Hillsong Worship/Open Heaven River Wild/02 Love On the Line.m4a'
p70
tp71
a(S'/pub/audio/music/Like A Storm/The End Of The Beginning'
p72
tp73
a(S'/pub/audio/_music_import/Hillsong Worship/Open Heaven River Wild'
p74
tp75
a(S'/pub/audio/music/Adelitas Way/Adelitas Way'
p76
tp77
a(S'/pub/audio/music/Hillsong United/United We Stand'
p78
tp79
a(S'/pub/audio/music/Adelitas Way/Home School Valedictorian'
p80
tp81
a(S'/pub/audio/music/Sum41/Underclass Hero'
p82
tp83
a(S'/pub/audio/music/Hillsong Worship/No_Other_Name'
p84
tp85
a(S'/pub/audio/music/Falling Up/Midnight On Earthship'
p86
tp87
a(S'/pub/audio/music/3 Doors Down/Time Of My Life'
p88
tp89
a(S'/pub/audio/music/Jimmy Eat World/2001 - Bleed American'
p90
tp91
a(S'/pub/audio/music/Secondhand Serenade/Awake'
p92
tp93
a(S'/pub/audio/music/Sum41/Chuck'
p94
tp95
a(S'/pub/audio/music/Sixx AM/Seven'
p96
tp97
a(S'/pub/audio/music/Red/Innocence & Instinct'
p98
tp99
a(S'/pub/audio/music/Story of the Year/Page Avenue Ten Years and Counting'
p100
tp101
a(S'/pub/audio/music/Hoobastank/Fight or Flight'
p102
tp103
a(S'/pub/audio/music/ICF Worship/Catching Fire'
p104
tp105
a(S'/pub/audio/music/Story of the Year/Story Of The Year - The Constant (2010)'
p106
tp107
a(S'/pub/audio/music/Hoobastank/Every Man For Himself'
p108
tp109
a(S'/pub/audio/music/Skillet/Awake'
p110
tp111
a(S'/pub/audio/music/SR-71/now_you_see_inside'
p112
tp113
a(S'/pub/audio/music/Framing Hanley/A Promise To Burn'
p114
tp115
a(S'/pub/audio/music/Secondhand Serenade/A Twist In My Story'
p116
tp117
a(S'/pub/audio/music/Sum41/Sum 41 - Half Hour Of Power'
p118
tp119
a(S'/pub/audio/music/Simple Plan/[2008] Simple Plan (Self Title)'
p120
tp121
a(S'/pub/audio/music/Fallzone/The Long Road'
p122
tp123
a(S'/pub/audio/music/Red/Until We Have Faces'
p124
tp125
a(S'/pub/audio/music/Framing Hanley/The Moment'
p126
tp127
a(S'/pub/audio/music/Red/Of Beauty and Rage'
p128
tp129
a(S'/pub/audio/music/Seventh Day Slumber/Finally Awake'
p130
tp131
a(S'/pub/audio/_music_import/Hillsong Worship/Open Heaven River Wild/03 One Thing.m4a'
p132
tp133
a(S'/pub/audio/_music_import/Hillsong Worship/Open Heaven River Wild/04 Open Heaven (River Wild).m4a'
p134
tp135
a(S'/pub/audio/music/Hillsong Worship/No Other Name (Deluxe Edition) 2014'
p136
tp137
a(S'/pub/audio/music/Hillsong Live/Cornerstone (Deluxe Edition)/Cornerstone (Deluxe Edition) - iTun.itlp/TuneKit/sounds'
p138
tp139
a(S'/pub/audio/music/Sick Puppies/Tripol'
p140
tp141
a(S'/pub/audio/music/Red/Release The Panic'
p142
tp143
a(S'/pub/audio/music/SR-71/tomorrow'
p144
tp145
a(S'/pub/audio/music/Saliva/Cinco Diablo'
p146
tp147
a(S'/pub/audio/music/Sum41/Does this Look Infected'
p148
tp149
a(S'/pub/audio/music/Rival Summers/Learning to Live'
p150
tp151
a(S'/pub/audio/music/The Fray/How To Save A Life'
p152
tp153
a(S'/pub/audio/music/Hillsong Live/Saviour King'
p154
tp155
atp156
Rp157
s.